; Function Attrs: inlinehint nounwind uwtable
define hidden noalias ptr @mi_heap_zalloc(ptr noundef %0, i64 noundef %1) local_unnamed_addr #0 {
  %3 = icmp ult i64 %1, 1025
  br i1 %3, label %4, label %27, !prof !8

4:                                                ; preds = %2
  %5 = add nuw nsw i64 %1, 7
  %6 = lshr i64 %5, 3
  %7 = getelementptr inbounds nuw i8, ptr %0, i64 232
  %8 = getelementptr inbounds nuw [129 x ptr], ptr %7, i64 0, i64 %6
  %9 = load ptr, ptr %8, align 8, !tbaa !9
  %10 = getelementptr inbounds nuw i8, ptr %9, i64 16
  %11 = load ptr, ptr %10, align 8, !tbaa !11
  %12 = icmp eq ptr %11, null
  br i1 %12, label %13, label %15, !prof !18

13:                                               ; preds = %4
  %14 = tail call noalias ptr @_mi_malloc_generic(ptr noundef nonnull %0, i64 noundef %1, i1 noundef zeroext true, i64 noundef 0) #19
  br label %_mi_heap_malloc_zero.exit

15:                                               ; preds = %4
  %.val.i.i.i.i = load i64, ptr %11, align 8, !tbaa !19
  %16 = inttoptr i64 %.val.i.i.i.i to ptr
  store ptr %16, ptr %10, align 8, !tbaa !11
  %17 = getelementptr inbounds nuw i8, ptr %9, i64 32
  %18 = load i16, ptr %17, align 8, !tbaa !21
  %19 = add i16 %18, 1
  store i16 %19, ptr %17, align 8, !tbaa !21
  %20 = getelementptr inbounds nuw i8, ptr %9, i64 15
  %21 = load i8, ptr %20, align 1
  %22 = and i8 %21, 1
  %.not.i.i.i.i = icmp eq i8 %22, 0
  br i1 %.not.i.i.i.i, label %24, label %23

23:                                               ; preds = %15
  store i64 0, ptr %11, align 8, !tbaa !19
  br label %_mi_heap_malloc_zero.exit

24:                                               ; preds = %15
  %25 = getelementptr inbounds nuw i8, ptr %9, i64 40
  %26 = load i64, ptr %25, align 8, !tbaa !22
  call void @llvm.assume(i1 true) [ "align"(ptr %11, i64 8) ]
  tail call void @llvm.memset.p0.i64(ptr nonnull align 8 %11, i8 0, i64 %26, i1 false)
  br label %_mi_heap_malloc_zero.exit

27:                                               ; preds = %2
  %28 = tail call noalias ptr @_mi_malloc_generic(ptr noundef %0, i64 noundef %1, i1 noundef zeroext true, i64 noundef 0) #19
  br label %_mi_heap_malloc_zero.exit

_mi_heap_malloc_zero.exit:                        ; preds = %13, %23, %24, %27
  %.0.i.i = phi ptr [ %28, %27 ], [ %14, %13 ], [ %11, %23 ], [ %11, %24 ]
  ret ptr %.0.i.i
}